; Function Attrs: null_pointer_is_valid sspstrong uwtable
define internal i32 @dissect_nbap_CommonPhysicalChannelID(ptr noundef %0, i32 noundef %1, ptr noundef %2, ptr noundef %3, i32 noundef %4) #0 {
  %6 = alloca i32, align 4
  call void @llvm.lifetime.start.p0(i64 4, ptr nonnull %6) #9
  %7 = getelementptr inbounds nuw i8, ptr %2, i64 16
  %8 = load ptr, ptr %7, align 8
  %9 = getelementptr inbounds nuw i8, ptr %8, i64 408
  %10 = load ptr, ptr %9, align 8
  %11 = load i32, ptr @proto_nbap, align 4
  %12 = tail call ptr @p_get_proto_data(ptr noundef %10, ptr noundef %8, i32 noundef %11, i32 noundef 0)
  %13 = icmp eq ptr %12, null
  br i1 %13, label %14, label %nbap_get_private_data.exit

14:                                               ; preds = %5
  %15 = load ptr, ptr %9, align 8
  %16 = tail call noalias dereferenceable_or_null(268056) ptr @wmem_alloc0(ptr noundef %15, i64 noundef 268056) #10
  %17 = load ptr, ptr %9, align 8
  %18 = load i32, ptr @proto_nbap, align 4
  tail call void @p_add_proto_data(ptr noundef %17, ptr noundef %8, i32 noundef %18, i32 noundef 0, ptr noundef %16)
  %19 = getelementptr inbounds nuw i8, ptr %16, i64 68
  store i32 3, ptr %19, align 4
  %20 = getelementptr inbounds nuw i8, ptr %16, i64 108
  store i8 0, ptr %20, align 4
  %21 = getelementptr inbounds nuw i8, ptr %16, i64 12
  store i32 65535, ptr %21, align 4
  %22 = getelementptr inbounds nuw i8, ptr %16, i64 40
  store i32 65535, ptr %22, align 8
  %23 = getelementptr inbounds nuw i8, ptr %16, i64 109
  store i8 2, ptr %23, align 1
  %24 = getelementptr i8, ptr %16, i64 267508
  br label %25

25:                                               ; preds = %25, %14
  %indvars.iv.i = phi i64 [ 0, %14 ], [ %indvars.iv.next.i, %25 ]
  %.idx.i = mul nuw nsw i64 %indvars.iv.i, 40
  %26 = getelementptr i8, ptr %24, i64 %.idx.i
  store i8 1, ptr %26, align 4
  %indvars.iv.next.i = add nuw nsw i64 %indvars.iv.i, 1
  %exitcond.not.i = icmp eq i64 %indvars.iv.next.i, 8
  br i1 %exitcond.not.i, label %nbap_get_private_data.exit, label %25, !llvm.loop !9

nbap_get_private_data.exit:                       ; preds = %25, %5
  %.0.i = phi ptr [ %12, %5 ], [ %16, %25 ]
  %27 = call i32 @dissect_per_constrained_integer(ptr noundef %0, i32 noundef %1, ptr noundef %2, ptr noundef %3, i32 noundef %4, i32 noundef 0, i32 noundef 255, ptr noundef nonnull %6, i1 noundef zeroext false)
  %28 = load i32, ptr %6, align 4
  %29 = getelementptr inbounds nuw i8, ptr %.0.i, i64 60
  store i32 %28, ptr %29, align 4
  %30 = icmp ult i32 %28, 128
  br i1 %30, label %31, label %35

31:                                               ; preds = %nbap_get_private_data.exit
  %32 = getelementptr inbounds nuw i8, ptr %.0.i, i64 112
  %narrow = mul nuw nsw i32 %28, 1040
  %33 = or disjoint i32 %narrow, 4
  %.offs = zext nneg i32 %33 to i64
  %34 = getelementptr i8, ptr %32, i64 %.offs
  store i32 0, ptr %34, align 4
  br label %35

35:                                               ; preds = %31, %nbap_get_private_data.exit
  call void @llvm.lifetime.end.p0(i64 4, ptr nonnull %6) #9
  ret i32 %27
}